target datalayout = "e-m:e-p270:32:32-p271:32:32-p272:64:64-i64:64-i128:128-f80:128-n8:16:32:64-S128"
target triple = "x86_64-pc-linux-gnu"

%struct.VLCInitState = type { ptr, i32 }

@__const.ff_ps_init_common.state = private unnamed_addr constant { ptr, i32, [4 x i8] } { ptr @ff_ps_init_common.vlc_buf, i32 5652, [4 x i8] zeroinitializer }, align 8
@huff_sizes = internal constant [10 x i8] c"==\1D\1D\0F\0F\08\08\08\08", align 1
@huff_offset = internal constant [10 x i8] c"\E2\E2\F2\F2\F9\F9\00\00\00\00", align 1
@vlc_ps = internal global [10 x ptr] zeroinitializer, align 16

; Function Attrs: cold nounwind optsize uwtable
define void @ff_ps_init_common() #6 {
  %1 = alloca %struct.VLCInitState, align 8
  %2 = alloca ptr, align 8
  %3 = alloca i32, align 4
  call void @llvm.lifetime.start.p0(i64 16, ptr %1) #9
  call void @llvm.memcpy.p0.p0.i64(ptr align 8 %1, ptr align 8 @__const.ff_ps_init_common.state, i64 16, i1 false)
  call void @llvm.lifetime.start.p0(i64 8, ptr %2) #9
  store ptr @aacps_huff_tabs, ptr %2, align 8, !tbaa !15
  call void @llvm.lifetime.start.p0(i64 4, ptr %3) #9
  store i32 0, ptr %3, align 4, !tbaa !12
  br label %4

4:                                                ; preds = %41, %0
  %5 = load i32, ptr %3, align 4, !tbaa !12
  %6 = sext i32 %5 to i64
  %7 = icmp ult i64 %6, 10
  br i1 %7, label %9, label %8

8:                                                ; preds = %4
  call void @llvm.lifetime.end.p0(i64 4, ptr %3) #9
  br label %44

9:                                                ; preds = %4
  %10 = load i32, ptr %3, align 4, !tbaa !12
  %11 = icmp sle i32 %10, 5
  %12 = select i1 %11, i32 9, i32 5
  %13 = load i32, ptr %3, align 4, !tbaa !12
  %14 = sext i32 %13 to i64
  %15 = getelementptr inbounds [10 x i8], ptr @huff_sizes, i64 0, i64 %14
  %16 = load i8, ptr %15, align 1, !tbaa !19
  %17 = zext i8 %16 to i32
  %18 = load ptr, ptr %2, align 8, !tbaa !15
  %19 = getelementptr inbounds [2 x i8], ptr %18, i64 0
  %20 = getelementptr inbounds [2 x i8], ptr %19, i64 0, i64 1
  %21 = load ptr, ptr %2, align 8, !tbaa !15
  %22 = getelementptr inbounds [2 x i8], ptr %21, i64 0
  %23 = getelementptr inbounds [2 x i8], ptr %22, i64 0, i64 0
  %24 = load i32, ptr %3, align 4, !tbaa !12
  %25 = sext i32 %24 to i64
  %26 = getelementptr inbounds [10 x i8], ptr @huff_offset, i64 0, i64 %25
  %27 = load i8, ptr %26, align 1, !tbaa !19
  %28 = sext i8 %27 to i32
  %29 = call ptr @ff_vlc_init_tables_from_lengths(ptr noundef %1, i32 noundef %12, i32 noundef %17, ptr noundef %20, i32 noundef 2, ptr noundef %23, i32 noundef 2, i32 noundef 1, i32 noundef %28, i32 noundef 0)
  %30 = load i32, ptr %3, align 4, !tbaa !12
  %31 = sext i32 %30 to i64
  %32 = getelementptr inbounds [10 x ptr], ptr @vlc_ps, i64 0, i64 %31
  store ptr %29, ptr %32, align 8, !tbaa !46
  %33 = load i32, ptr %3, align 4, !tbaa !12
  %34 = sext i32 %33 to i64
  %35 = getelementptr inbounds [10 x i8], ptr @huff_sizes, i64 0, i64 %34
  %36 = load i8, ptr %35, align 1, !tbaa !19
  %37 = zext i8 %36 to i32
  %38 = load ptr, ptr %2, align 8, !tbaa !15
  %39 = sext i32 %37 to i64
  %40 = getelementptr inbounds [2 x i8], ptr %38, i64 %39
  store ptr %40, ptr %2, align 8, !tbaa !15
  br label %41

41:                                               ; preds = %9
  %42 = load i32, ptr %3, align 4, !tbaa !12
  %43 = add nsw i32 %42, 1
  store i32 %43, ptr %3, align 4, !tbaa !12
  br label %4, !llvm.loop !53

44:                                               ; preds = %8
  call void @llvm.lifetime.end.p0(i64 8, ptr %2) #9
  call void @llvm.lifetime.end.p0(i64 16, ptr %1) #9
  ret void
}