; Function Attrs: cold nounwind optsize uwtable
define void @ff_ps_init_common() local_unnamed_addr #5 {
  %1 = alloca %struct.VLCInitState, align 8
  call void @llvm.lifetime.start.p0(i64 16, ptr nonnull %1) #7
  call void @llvm.memcpy.p0.p0.i64(ptr noundef nonnull align 8 dereferenceable(16) %1, ptr noundef nonnull align 8 dereferenceable(16) @__const.ff_ps_init_common.state, i64 16, i1 false)
  br label %3

2:                                                ; preds = %3
  call void @llvm.lifetime.end.p0(i64 16, ptr nonnull %1) #7
  ret void

3:                                                ; preds = %0, %3
  %indvars.iv = phi i64 [ 0, %0 ], [ %indvars.iv.next, %3 ]
  %.0911 = phi ptr [ @aacps_huff_tabs, %0 ], [ %15, %3 ]
  %.inv = icmp samesign ugt i64 %indvars.iv, 5
  %4 = select i1 %.inv, i32 5, i32 9
  %5 = getelementptr inbounds nuw [10 x i8], ptr @huff_sizes, i64 0, i64 %indvars.iv
  %6 = load i8, ptr %5, align 1, !tbaa !13
  %7 = zext i8 %6 to i32
  %8 = getelementptr inbounds nuw i8, ptr %.0911, i64 1
  %9 = getelementptr inbounds nuw [10 x i8], ptr @huff_offset, i64 0, i64 %indvars.iv
  %10 = load i8, ptr %9, align 1, !tbaa !13
  %11 = sext i8 %10 to i32
  %12 = call ptr @ff_vlc_init_tables_from_lengths(ptr noundef nonnull %1, i32 noundef %4, i32 noundef %7, ptr noundef nonnull %8, i32 noundef 2, ptr noundef nonnull %.0911, i32 noundef 2, i32 noundef 1, i32 noundef %11, i32 noundef 0) #7
  %13 = getelementptr inbounds nuw [10 x ptr], ptr @vlc_ps, i64 0, i64 %indvars.iv
  store ptr %12, ptr %13, align 8, !tbaa !29
  %14 = zext i8 %6 to i64
  %15 = getelementptr inbounds nuw [2 x i8], ptr %.0911, i64 %14
  %indvars.iv.next = add nuw nsw i64 %indvars.iv, 1
  %exitcond.not = icmp eq i64 %indvars.iv.next, 10
  br i1 %exitcond.not, label %2, label %3, !llvm.loop !48
}